; Function Attrs: mustprogress nounwind uwtable
define hidden void @_ZN8ciMethod10print_implEP12outputStream(ptr noundef nonnull align 8 dereferenceable(160) %0, ptr noundef nonnull %1) unnamed_addr #0 align 2 {
  %3 = alloca %class.ciFlags, align 8
  tail call void (ptr, ptr, ...) @_ZN12outputStream5printEPKcz(ptr noundef nonnull align 8 dereferenceable(56) %1, ptr noundef nonnull @.str.9) #14
  %4 = getelementptr inbounds i8, ptr %0, i64 32
  %5 = load ptr, ptr %4, align 8
  tail call void @_ZN8ciSymbol15print_symbol_onEP12outputStream(ptr noundef nonnull align 8 dereferenceable(28) %5, ptr noundef nonnull %1) #14
  tail call void (ptr, ptr, ...) @_ZN12outputStream5printEPKcz(ptr noundef nonnull align 8 dereferenceable(56) %1, ptr noundef nonnull @.str.10) #14
  %6 = getelementptr inbounds i8, ptr %0, i64 40
  %7 = load ptr, ptr %6, align 8
  %8 = load ptr, ptr %7, align 8
  %9 = getelementptr inbounds i8, ptr %8, i64 136
  %10 = load ptr, ptr %9, align 8
  tail call void %10(ptr noundef nonnull align 8 dereferenceable(44) %7, ptr noundef nonnull %1) #14
  tail call void (ptr, ptr, ...) @_ZN12outputStream5printEPKcz(ptr noundef nonnull align 8 dereferenceable(56) %1, ptr noundef nonnull @.str.11) #14
  %11 = getelementptr inbounds i8, ptr %0, i64 48
  %12 = load ptr, ptr %11, align 8
  %13 = load ptr, ptr %12, align 8
  tail call void @_ZN8ciSymbol15print_symbol_onEP12outputStream(ptr noundef nonnull align 8 dereferenceable(28) %13, ptr noundef nonnull %1) #14
  %14 = getelementptr inbounds i8, ptr %0, i64 16
  %15 = load ptr, ptr %14, align 8
  %.not.i = icmp eq ptr %15, null
  br i1 %.not.i, label %_ZNK10ciMetadata9is_loadedEv.exit, label %_ZNK10ciMetadata9is_loadedEv.exit.thread

_ZNK10ciMetadata9is_loadedEv.exit:                ; preds = %2
  %16 = load ptr, ptr %0, align 8
  %17 = getelementptr inbounds i8, ptr %16, i64 32
  %18 = load ptr, ptr %17, align 8
  %19 = tail call noundef zeroext i1 %18(ptr noundef nonnull align 8 dereferenceable(24) %0) #14
  br i1 %19, label %_ZNK10ciMetadata9is_loadedEv.exit.thread, label %28

_ZNK10ciMetadata9is_loadedEv.exit.thread:         ; preds = %2, %_ZNK10ciMetadata9is_loadedEv.exit
  tail call void (ptr, ptr, ...) @_ZN12outputStream5printEPKcz(ptr noundef nonnull align 8 dereferenceable(56) %1, ptr noundef nonnull @.str.12) #14
  %20 = load ptr, ptr %11, align 8
  %21 = getelementptr inbounds i8, ptr %20, i64 48
  %22 = load i32, ptr %21, align 8
  %23 = getelementptr inbounds i8, ptr %0, i64 24
  %24 = load i32, ptr %23, align 8
  %25 = lshr i32 %24, 3
  %.lobit.i = and i32 %25, 1
  %26 = xor i32 %.lobit.i, 1
  %27 = add nsw i32 %26, %22
  tail call void (ptr, ptr, ...) @_ZN12outputStream5printEPKcz(ptr noundef nonnull align 8 dereferenceable(56) %1, ptr noundef nonnull @.str.13, i32 noundef %27) #14
  tail call void (ptr, ptr, ...) @_ZN12outputStream5printEPKcz(ptr noundef nonnull align 8 dereferenceable(56) %1, ptr noundef nonnull @.str.14) #14
  %.sroa.0.0.copyload.i = load i64, ptr %23, align 8
  store i64 %.sroa.0.0.copyload.i, ptr %3, align 8
  call void @_ZN7ciFlags18print_member_flagsEP12outputStream(ptr noundef nonnull align 4 dereferenceable(6) %3, ptr noundef nonnull %1) #14
  br label %29

28:                                               ; preds = %_ZNK10ciMetadata9is_loadedEv.exit
  tail call void (ptr, ptr, ...) @_ZN12outputStream5printEPKcz(ptr noundef nonnull align 8 dereferenceable(56) %1, ptr noundef nonnull @.str.15) #14
  br label %29

29:                                               ; preds = %28, %_ZNK10ciMetadata9is_loadedEv.exit.thread
  ret void
}